; Function Attrs: nounwind uwtable
define void @_ZTv0_n24_N3nix6FdSinkD0Ev(ptr noundef %0) unnamed_addr #9 align 2 {
  %2 = load ptr, ptr %0, align 8
  %3 = getelementptr inbounds i8, ptr %2, i64 -24
  %4 = load i64, ptr %3, align 8
  %5 = getelementptr inbounds i8, ptr %0, i64 %4
  tail call void @_ZN3nix6FdSinkD2Ev(ptr noundef nonnull align 8 dereferenceable(49) %5, ptr noundef nonnull @_ZTTN3nix6FdSinkE) #34
  tail call void @_ZdlPv(ptr noundef nonnull %5) #36
  ret void
}